; Function Attrs: nounwind uwtable
define noalias noundef ptr @Ptr_AbcDeriveDes(ptr noundef readonly captures(none) %0) local_unnamed_addr #0 {
  %2 = getelementptr inbounds nuw i8, ptr %0, i64 176
  %3 = load ptr, ptr %2, align 8, !tbaa !53
  %4 = getelementptr inbounds nuw i8, ptr %3, i64 24
  %5 = load ptr, ptr %4, align 8, !tbaa !54
  %6 = getelementptr i8, ptr %5, i64 4
  %.val11 = load i32, ptr %6, align 4, !tbaa !35
  %7 = add nsw i32 %.val11, 1
  %8 = tail call noalias dereferenceable_or_null(16) ptr @malloc(i64 noundef 16) #20
  %9 = getelementptr inbounds nuw i8, ptr %8, i64 4
  store i32 %7, ptr %8, align 8, !tbaa !36
  %.not.i = icmp eq i32 %7, 0
  br i1 %.not.i, label %Vec_PtrPush.exit.thread, label %Vec_PtrPush.exit

Vec_PtrPush.exit.thread:                          ; preds = %1
  %10 = getelementptr inbounds nuw i8, ptr %8, i64 8
  %11 = load ptr, ptr %3, align 8, !tbaa !57
  %12 = tail call noalias dereferenceable_or_null(128) ptr @malloc(i64 noundef 128) #20
  store ptr %12, ptr %10, align 8, !tbaa !32
  store i32 16, ptr %8, align 8, !tbaa !36
  store i32 1, ptr %9, align 4, !tbaa !35
  store ptr %11, ptr %12, align 8, !tbaa !34
  br label %.critedge

Vec_PtrPush.exit:                                 ; preds = %1
  %13 = sext i32 %7 to i64
  %14 = shl nsw i64 %13, 3
  %15 = tail call noalias ptr @malloc(i64 noundef %14) #20
  %16 = getelementptr inbounds nuw i8, ptr %8, i64 8
  store ptr %15, ptr %16, align 8, !tbaa !32
  %17 = load ptr, ptr %3, align 8, !tbaa !57
  store i32 1, ptr %9, align 4, !tbaa !35
  store ptr %17, ptr %15, align 8, !tbaa !34
  %18 = icmp sgt i32 %.val11, 0
  br i1 %18, label %.lr.ph, label %.critedge

.lr.ph:                                           ; preds = %Vec_PtrPush.exit, %Vec_PtrPush.exit18
  %19 = phi i32 [ %58, %Vec_PtrPush.exit18 ], [ %7, %Vec_PtrPush.exit ]
  %20 = phi i32 [ %60, %Vec_PtrPush.exit18 ], [ 1, %Vec_PtrPush.exit ]
  %indvars.iv = phi i64 [ %indvars.iv.next, %Vec_PtrPush.exit18 ], [ 0, %Vec_PtrPush.exit ]
  %21 = phi ptr [ %65, %Vec_PtrPush.exit18 ], [ %5, %Vec_PtrPush.exit ]
  %22 = getelementptr i8, ptr %21, i64 8
  %.val = load ptr, ptr %22, align 8, !tbaa !32
  %23 = getelementptr inbounds nuw ptr, ptr %.val, i64 %indvars.iv
  %24 = load ptr, ptr %23, align 8, !tbaa !34
  %25 = tail call noalias dereferenceable_or_null(16) ptr @malloc(i64 noundef 16) #20
  %26 = getelementptr inbounds nuw i8, ptr %25, i64 4
  store i32 5, ptr %25, align 8, !tbaa !36
  %27 = tail call noalias dereferenceable_or_null(40) ptr @malloc(i64 noundef 40) #20
  %28 = getelementptr inbounds nuw i8, ptr %25, i64 8
  store ptr %27, ptr %28, align 8, !tbaa !32
  %29 = getelementptr i8, ptr %24, i64 8
  %.val.i = load ptr, ptr %29, align 8, !tbaa !42
  store ptr %.val.i, ptr %27, align 8, !tbaa !34
  %30 = tail call ptr @Ptr_AbcDeriveInputs(ptr noundef readonly %24)
  %31 = getelementptr inbounds nuw i8, ptr %27, i64 8
  store ptr %30, ptr %31, align 8, !tbaa !34
  %32 = tail call ptr @Ptr_AbcDeriveOutputs(ptr noundef nonnull readonly %24)
  %33 = getelementptr inbounds nuw i8, ptr %27, i64 16
  store ptr %32, ptr %33, align 8, !tbaa !34
  %calloc.i = tail call dereferenceable_or_null(16) ptr @calloc(i64 1, i64 16)
  %34 = getelementptr inbounds nuw i8, ptr %27, i64 24
  store ptr %calloc.i, ptr %34, align 8, !tbaa !34
  %35 = tail call ptr @Ptr_AbcDeriveBoxes(ptr noundef nonnull readonly %24)
  store i32 5, ptr %26, align 4, !tbaa !35
  %36 = getelementptr inbounds nuw i8, ptr %27, i64 32
  store ptr %35, ptr %36, align 8, !tbaa !34
  %37 = icmp eq i32 %20, %19
  br i1 %37, label %38, label %.Vec_PtrGrow.exit11_crit_edge.i12

.Vec_PtrGrow.exit11_crit_edge.i12:                ; preds = %.lr.ph
  %.pre.i14 = load ptr, ptr %16, align 8, !tbaa !32
  br label %Vec_PtrPush.exit18

38:                                               ; preds = %.lr.ph
  %39 = icmp slt i32 %19, 16
  br i1 %39, label %40, label %47

40:                                               ; preds = %38
  %41 = load ptr, ptr %16, align 8, !tbaa !32
  %.not9.i.i16 = icmp eq ptr %41, null
  br i1 %.not9.i.i16, label %44, label %42

42:                                               ; preds = %40
  %43 = tail call dereferenceable_or_null(128) ptr @realloc(ptr noundef nonnull %41, i64 noundef 128) #21
  br label %Vec_PtrGrow.exit.i17

44:                                               ; preds = %40
  %45 = tail call noalias dereferenceable_or_null(128) ptr @malloc(i64 noundef 128) #20
  br label %Vec_PtrGrow.exit.i17

Vec_PtrGrow.exit.i17:                             ; preds = %44, %42
  %46 = phi ptr [ %43, %42 ], [ %45, %44 ]
  store ptr %46, ptr %16, align 8, !tbaa !32
  store i32 16, ptr %8, align 8, !tbaa !36
  br label %Vec_PtrPush.exit18

47:                                               ; preds = %38
  %48 = shl nuw nsw i32 %19, 1
  %49 = load ptr, ptr %16, align 8, !tbaa !32
  %.not9.i10.i15 = icmp eq ptr %49, null
  %50 = zext nneg i32 %48 to i64
  %51 = shl nuw nsw i64 %50, 3
  br i1 %.not9.i10.i15, label %54, label %52

52:                                               ; preds = %47
  %53 = tail call ptr @realloc(ptr noundef nonnull %49, i64 noundef %51) #21
  br label %56

54:                                               ; preds = %47
  %55 = tail call noalias ptr @malloc(i64 noundef %51) #20
  br label %56

56:                                               ; preds = %54, %52
  %57 = phi ptr [ %53, %52 ], [ %55, %54 ]
  store ptr %57, ptr %16, align 8, !tbaa !32
  store i32 %48, ptr %8, align 8, !tbaa !36
  br label %Vec_PtrPush.exit18

Vec_PtrPush.exit18:                               ; preds = %.Vec_PtrGrow.exit11_crit_edge.i12, %Vec_PtrGrow.exit.i17, %56
  %58 = phi i32 [ %19, %.Vec_PtrGrow.exit11_crit_edge.i12 ], [ %48, %56 ], [ 16, %Vec_PtrGrow.exit.i17 ]
  %59 = phi ptr [ %.pre.i14, %.Vec_PtrGrow.exit11_crit_edge.i12 ], [ %57, %56 ], [ %46, %Vec_PtrGrow.exit.i17 ]
  %60 = add nuw nsw i32 %20, 1
  store i32 %60, ptr %9, align 4, !tbaa !35
  %61 = zext nneg i32 %20 to i64
  %62 = getelementptr inbounds nuw ptr, ptr %59, i64 %61
  store ptr %25, ptr %62, align 8, !tbaa !34
  %indvars.iv.next = add nuw nsw i64 %indvars.iv, 1
  %63 = load ptr, ptr %2, align 8, !tbaa !53
  %64 = getelementptr inbounds nuw i8, ptr %63, i64 24
  %65 = load ptr, ptr %64, align 8, !tbaa !54
  %66 = getelementptr i8, ptr %65, i64 4
  %.val10 = load i32, ptr %66, align 4, !tbaa !35
  %67 = sext i32 %.val10 to i64
  %68 = icmp slt i64 %indvars.iv.next, %67
  br i1 %68, label %.lr.ph, label %.critedge, !llvm.loop !58

.critedge:                                        ; preds = %Vec_PtrPush.exit18, %Vec_PtrPush.exit.thread, %Vec_PtrPush.exit
  ret ptr %8
}